Certificate:
    Data:
        Version: 1 (0x0)
        Serial Number: 4 (0x4)
        Signature Algorithm: sha256WithRSAEncryption
        Issuer: C=US, CN=linkerd demo CA
        Validity
            Not Before: Nov  1 21:17:17 2016 GMT
            Not After : Oct  8 21:17:17 2116 GMT
        Subject: CN=linkerd-tls-e2e, C=US
        Subject Public Key Info:
            Public Key Algorithm: rsaEncryption
            RSA Public Key: (2048 bit)
                Modulus (2048 bit):
                    00:ca:a2:3e:92:2a:d7:13:87:d3:e2:63:e6:fe:38:
                    8e:08:ed:b5:a2:58:ba:b1:82:47:f3:cc:e7:23:0b:
                    50:4b:55:6f:76:a5:be:37:97:ca:7c:aa:cb:38:0b:
                    be:d0:e3:29:f8:df:76:48:49:51:88:06:f6:17:7d:
                    3d:40:a7:80:d5:2c:2a:52:80:59:7c:6a:29:5a:6c:
                    69:86:e9:36:ec:ee:a0:2c:c7:3b:ce:7c:f5:c4:15:
                    11:27:cc:7a:6a:b2:f7:20:0b:ff:ad:99:9f:dc:94:
                    03:92:63:20:ee:67:d2:5e:0b:a4:3b:b0:b7:7d:4a:
                    1c:53:78:d1:a0:40:59:ae:fa:d6:21:e2:82:b1:0e:
                    81:a5:58:1f:a2:e0:2c:0d:06:1d:f4:9d:df:9d:03:
                    09:4d:3c:03:ac:a8:0d:cc:85:fe:e2:41:01:5e:f5:
                    20:7f:a1:58:c6:f5:8e:f1:18:67:d0:b2:13:ae:c0:
                    4c:05:c8:48:08:ed:42:ba:71:74:fc:52:33:67:1e:
                    3a:9c:b5:9c:ec:22:6d:45:3e:8e:3a:20:10:d1:81:
                    16:6a:7b:1a:d2:ea:c6:07:23:fe:cf:a2:b2:58:f5:
                    fd:8e:89:68:c0:81:0c:6e:e8:51:53:e4:79:84:0a:
                    a1:94:00:51:47:52:ba:69:9c:53:cc:38:83:a3:4f:
                    14:17
                Exponent: 65537 (0x10001)
    Signature Algorithm: sha256WithRSAEncryption
        df:69:eb:58:c1:19:9c:31:7c:64:06:56:3f:ee:7b:b2:91:a1:
        0c:10:65:e5:8f:72:e4:6e:77:a8:cb:a1:58:56:c8:87:76:45:
        2b:33:74:98:2d:36:d9:24:bd:79:48:8f:41:97:ef:93:d1:88:
        b2:96:5b:b3:b5:d9:4d:9f:0b:bd:35:82:4b:19:94:67:3f:95:
        71:83:31:e0:d9:73:91:43:98:d6:c2:23:c9:cf:41:dc:27:52:
        ec:bf:10:e5:b9:28:8f:a2:dc:69:39:e3:89:85:d1:80:d4:a6:
        de:23:8a:9f:e6:24:bf:1d:77:ef:bf:e5:92:b5:4a:97:9b:cb:
        64:d2:da:9a:6e:fd:32:ac:94:7a:5f:7c:44:87:69:36:bf:06:
        4d:74:78:28:95:c9:02:7d:5d:01:32:f7:24:f7:dc:97:7c:93:
        72:16:14:e1:8f:0f:71:a7:c4:59:f3:e0:0c:7f:4b:c7:31:b0:
        91:b1:58:f9:02:1b:06:59:58:7f:03:86:71:24:c0:07:17:6c:
        37:dd:3b:7a:a1:52:82:64:c1:5c:2d:a4:8b:11:9e:50:2d:60:
        40:4d:00:6d:03:5f:00:5c:fa:23:8e:b6:22:b0:dd:72:35:37:
        ae:19:7f:f1:e0:b0:50:03:b6:78:9f:59:57:a6:46:cc:61:21:
        43:9d:4d:1b:e8:d6:46:aa:ef:74:9d:60:88:e5:d6:12:0a:41:
        9d:ba:08:9a:38:93:f7:cd:60:be:0d:d5:bb:ff:7d:5b:61:dc:
        bd:00:d5:72:c2:66:c8:9a:fc:52:2f:1d:9a:7d:1f:4f:54:a2:
        62:32:ec:fa:35:4c:ef:2c:c6:d2:9a:f8:24:9c:54:7b:9e:04:
        a3:3a:5f:8b:8d:8c:21:3b:33:0a:9b:d6:d4:2e:52:3e:e7:ea:
        de:b6:44:fc:4d:be:d6:5b:8b:46:a5:d0:8f:58:e5:8d:7c:cb:
        eb:73:7f:fe:ce:a8:92:84:5c:49:1b:43:6f:72:47:32:4a:2e:
        e5:19:3c:e4:88:58:12:90:72:30:17:06:1a:9b:c2:04:9f:73:
        8f:e1:21:14:4c:54:e2:0a:75:05:5d:42:74:97:c0:36:28:31:
        24:91:f6:bf:43:c2:dc:9b:12:fa:c0:48:7e:72:1c:07:fb:3c:
        4c:13:d7:15:11:94:85:e5:d4:2c:31:42:8d:5f:8f:ea:3c:29:
        6a:6b:82:fc:fd:83:c9:5e:ef:44:8a:b1:fd:d9:e2:5a:ac:0a:
        fe:a1:8e:d3:4d:5f:7f:69:5c:37:9a:52:76:dc:46:d8:fe:65:
        ec:c7:83:25:67:6c:ac:33:ae:c5:12:d1:05:77:b7:04:d7:c3:
        90:85:30:bb:28:60:11:7a
-----BEGIN CERTIFICATE-----
MIIDxDCCAawCAQQwDQYJKoZIhvcNAQELBQAwJzELMAkGA1UEBhMCVVMxGDAWBgNV
BAMMD2xpbmtlcmQgZGVtbyBDQTAgFw0xNjExMDEyMTE3MTdaGA8yMTE2MTAwODIx
MTcxN1owJzEYMBYGA1UEAwwPbGlua2VyZC10bHMtZTJlMQswCQYDVQQGEwJVUzCC
ASIwDQYJKoZIhvcNAQEBBQADggEPADCCAQoCggEBAMqiPpIq1xOH0+Jj5v44jgjt
taJYurGCR/PM5yMLUEtVb3alvjeXynyqyzgLvtDjKfjfdkhJUYgG9hd9PUCngNUs
KlKAWXxqKVpsaYbpNuzuoCzHO8589cQVESfMemqy9yAL/62Zn9yUA5JjIO5n0l4L
pDuwt31KHFN40aBAWa761iHigrEOgaVYH6LgLA0GHfSd350DCU08A6yoDcyF/uJB
AV71IH+hWMb1jvEYZ9CyE67ATAXISAjtQrpxdPxSM2ceOpy1nOwibUU+jjogENGB
Fmp7GtLqxgcj/s+islj1/Y6JaMCBDG7oUVPkeYQKoZQAUUdSummcU8w4g6NPFBcC
AwEAATANBgkqhkiG9w0BAQsFAAOCAgEA32nrWMEZnDF8ZAZWP+57spGhDBBl5Y9y
5G53qMuhWFbIh3ZFKzN0mC022SS9eUiPQZfvk9GIspZbs7XZTZ8LvTWCSxmUZz+V
cYMx4NlzkUOY1sIjyc9B3CdS7L8Q5bkoj6LcaTnjiYXRgNSm3iOKn+Ykvx1377/l
krVKl5vLZNLamm79MqyUel98RIdpNr8GTXR4KJXJAn1dATL3JPfcl3yTchYU4Y8P
cafEWfPgDH9LxzGwkbFY+QIbBllYfwOGcSTABxdsN907eqFSgmTBXC2kixGeUC1g
QE0AbQNfAFz6I462IrDdcjU3rhl/8eCwUAO2eJ9ZV6ZGzGEhQ51NG+jWRqrvdJ1g
iOXWEgpBnboImjiT981gvg3Vu/99W2HcvQDVcsJmyJr8Ui8dmn0fT1SiYjLs+jVM
7yzG0pr4JJxUe54Eozpfi42MITszCpvW1C5SPufq3rZE/E2+1luLRqXQj1jljXzL
63N//s6okoRcSRtDb3JHMkou5Rk85IhYEpByMBcGGpvCBJ9zj+EhFExU4gp1BV1C
dJfANigxJJH2v0PC3JsS+sBIfnIcB/s8TBPXFRGUheXULDFCjV+P6jwpamuC/P2D
yV7vRIqx/dniWqwK/qGO001ff2lcN5pSdtxG2P5l7MeDJWdsrDOuxRLRBXe3BNfD
kIUwuyhgEXo=
-----END CERTIFICATE-----
