Certificate:
    Data:
        Version: 1 (0x0)
        Serial Number: 2 (0x2)
        Signature Algorithm: sha256WithRSAEncryption
        Issuer: C=US, CN=Test CA
        Validity
            Not Before: Sep 28 17:16:57 2016 GMT
            Not After : Sep  4 17:16:57 2116 GMT
        Subject: CN=namerd, C=US
        Subject Public Key Info:
            Public Key Algorithm: rsaEncryption
            RSA Public Key: (2048 bit)
                Modulus (2048 bit):
                    00:d4:53:1b:35:8f:6d:19:41:1e:f7:c1:13:72:83:
                    68:19:e1:63:cf:8a:0e:b9:ad:c0:6d:be:31:e1:09:
                    dd:a6:6f:d8:9f:de:8b:35:5d:36:13:50:85:c5:6c:
                    6b:fe:92:d3:e6:dc:7e:2e:90:cd:c4:97:c8:77:cd:
                    bc:6a:4f:7b:7e:30:1f:79:1c:32:1a:75:e2:d1:88:
                    ee:bd:30:e3:c7:1f:ca:28:29:f4:94:fa:6a:f2:d5:
                    2a:1e:58:e3:39:7f:82:f6:c1:14:7e:f8:9e:8c:f0:
                    f1:32:ab:20:91:22:59:92:db:0e:d4:e0:e6:b4:2f:
                    73:8c:7c:71:48:3b:b6:79:d8:c2:55:a6:e3:d0:40:
                    64:9f:5f:f1:db:4c:1b:b3:18:ec:a4:0c:3f:2c:c7:
                    2b:08:f5:e5:16:14:5b:ad:b5:45:d6:d2:80:7e:5e:
                    cb:38:0e:83:c7:5a:d6:fa:04:cb:13:15:37:68:9f:
                    88:48:9f:61:c9:83:f5:88:11:54:06:69:fe:0b:49:
                    4c:23:55:20:cc:2b:73:36:79:b4:e9:c9:00:a4:c2:
                    93:7a:60:76:cb:ca:35:1a:9c:e7:54:9e:62:77:87:
                    a0:29:76:3a:49:c6:06:cb:f3:3b:95:88:c2:04:b4:
                    4c:0d:92:b2:7e:7e:97:50:b3:27:a8:9b:03:20:29:
                    1f:2d
                Exponent: 65537 (0x10001)
    Signature Algorithm: sha256WithRSAEncryption
        8b:17:72:ef:38:86:e2:6f:6d:e5:85:81:50:2f:31:3c:f2:10:
        1d:e0:3a:d3:bc:f5:52:03:8d:a2:41:8d:cb:0e:f1:23:a9:8c:
        8e:cf:52:cd:68:ac:89:06:bf:c3:70:84:75:f2:87:e8:96:48:
        83:ae:6c:5f:31:cf:b7:5d:96:c2:f6:27:f2:c0:70:8b:24:4b:
        b1:f2:14:de:ce:f7:ec:c8:33:7a:71:cf:e9:b0:cd:bb:fd:55:
        3d:16:3d:d7:d6:33:22:c9:25:ce:e6:53:18:dd:8f:2d:1c:f4:
        07:a6:b7:50:0a:b7:81:40:1c:82:72:5e:d7:6a:22:69:e8:fb:
        4b:03:ce:ac:c8:aa:a0:08:1c:c4:2a:eb:5c:33:56:09:60:ed:
        ee:a5:69:9f:fd:cc:fb:b6:46:2a:07:de:18:ae:e6:f2:b7:7a:
        f8:6f:a1:c6:f7:f1:3f:fd:49:c9:02:49:ad:85:64:1b:d7:83:
        b6:81:9a:65:29:c9:64:e0:d3:41:33:3c:38:af:e4:c1:a1:64:
        d3:9c:06:08:7e:36:cd:e4:eb:27:cc:68:20:06:27:19:38:1b:
        31:12:80:e9:a7:b6:e1:7b:6d:4f:9c:39:03:4b:07:01:96:36:
        39:22:59:20:ec:54:58:84:fa:be:91:30:07:b8:6c:be:14:a1:
        80:80:10:a4
-----BEGIN CERTIFICATE-----
MIICszCCAZsCAQIwDQYJKoZIhvcNAQELBQAwHzELMAkGA1UEBhMCVVMxEDAOBgNV
BAMMB1Rlc3QgQ0EwIBcNMTYwOTI4MTcxNjU3WhgPMjExNjA5MDQxNzE2NTdaMB4x
DzANBgNVBAMMBm5hbWVyZDELMAkGA1UEBhMCVVMwggEiMA0GCSqGSIb3DQEBAQUA
A4IBDwAwggEKAoIBAQDUUxs1j20ZQR73wRNyg2gZ4WPPig65rcBtvjHhCd2mb9if
3os1XTYTUIXFbGv+ktPm3H4ukM3El8h3zbxqT3t+MB95HDIadeLRiO69MOPHH8oo
KfSU+mry1SoeWOM5f4L2wRR++J6M8PEyqyCRIlmS2w7U4Oa0L3OMfHFIO7Z52MJV
puPQQGSfX/HbTBuzGOykDD8sxysI9eUWFFuttUXW0oB+Xss4DoPHWtb6BMsTFTdo
n4hIn2HJg/WIEVQGaf4LSUwjVSDMK3M2ebTpyQCkwpN6YHbLyjUanOdUnmJ3h6Ap
djpJxgbL8zuViMIEtEwNkrJ+fpdQsyeomwMgKR8tAgMBAAEwDQYJKoZIhvcNAQEL
BQADggEBAIsXcu84huJvbeWFgVAvMTzyEB3gOtO89VIDjaJBjcsO8SOpjI7PUs1o
rIkGv8NwhHXyh+iWSIOubF8xz7ddlsL2J/LAcIskS7HyFN7O9+zIM3pxz+mwzbv9
VT0WPdfWMyLJJc7mUxjdjy0c9Aemt1AKt4FAHIJyXtdqImno+0sDzqzIqqAIHMQq
61wzVglg7e6laZ/9zPu2RioH3hiu5vK3evhvocb38T/9SckCSa2FZBvXg7aBmmUp
yWTg00EzPDiv5MGhZNOcBgh+Ns3k6yfMaCAGJxk4GzESgOmntuF7bU+cOQNLBwGW
NjkiWSDsVFiE+r6RMAe4bL4UoYCAEKQ=
-----END CERTIFICATE-----
